; Function Attrs: mustprogress uwtable
define hidden void @_ZN4cvc58internal6theory20TrustSubstitutionMap5applyENS0_12NodeTemplateILb1EEEPNS1_8RewriterE(ptr noalias sret(%"class.cvc5::internal::NodeTemplate") align 8 %agg.result, ptr noundef nonnull align 8 dereferenceable(608) %this, ptr nocapture noundef readonly %n, ptr noundef %r) local_unnamed_addr #3 align 2 personality ptr @__gxx_personality_v0 {
entry:
  %agg.tmp = alloca %"class.cvc5::internal::NodeTemplate.376", align 8
  %d_subs = getelementptr inbounds i8, ptr %this, i64 32
  %0 = load ptr, ptr %n, align 8
  store ptr %0, ptr %agg.tmp, align 8
  call void @_ZN4cvc58internal6theory15SubstitutionMap5applyENS0_12NodeTemplateILb0EEEPNS1_8RewriterEPSt3setIS4_St4lessIS4_ESaIS4_EEPKNS2_22ShouldTraverseCallbackE(ptr sret(%"class.cvc5::internal::NodeTemplate") align 8 %agg.result, ptr noundef nonnull align 8 dereferenceable(256) %d_subs, ptr noundef nonnull %agg.tmp, ptr noundef %r, ptr noundef null, ptr noundef null)
  ret void
}